target datalayout = "e-m:e-p270:32:32-p271:32:32-p272:64:64-i64:64-i128:128-f80:128-n8:16:32:64-S128"
target triple = "x86_64-pc-linux-gnu"

%"class.folly::detail::ScopeGuardImplBase" = type { i8 }
%"class.std::reference_wrapper" = type { ptr }
%"class.folly::detail::ScopeGuardImpl.180" = type { %"class.folly::detail::ScopeGuardImplBase", %class.anon.181 }
%class.anon.181 = type { ptr, ptr }

; Function Attrs: mustprogress uwtable
define internal void @_ZSt13__invoke_implIvRFvPvN5folly18TLPDestructionModeEEJRPNS1_20SingletonThreadLocalINS1_4test12_GLOBAL__N_114PerThreadStateENS1_6detail10DefaultTagENS9_11DefaultMakeIS8_EEvE7WrapperES2_EET_St14__invoke_otherOT0_DpOT1_(ptr noundef nonnull %0, ptr noundef nonnull align 8 dereferenceable(8) %1, ptr noundef nonnull align 4 dereferenceable(4) %2) #6 {
  %4 = alloca ptr, align 8
  %5 = alloca ptr, align 8
  %6 = alloca ptr, align 8
  store ptr %0, ptr %4, align 8, !tbaa !117
  store ptr %1, ptr %5, align 8, !tbaa !646
  store ptr %2, ptr %6, align 8, !tbaa !117
  %7 = load ptr, ptr %4, align 8, !tbaa !117
  %8 = load ptr, ptr %5, align 8, !tbaa !646
  %9 = load ptr, ptr %8, align 8, !tbaa !260
  %10 = load ptr, ptr %6, align 8, !tbaa !117
  %11 = load i32, ptr %10, align 4, !tbaa !717
  call void %7(ptr noundef %9, i32 noundef %11)
  ret void
}

; Function Attrs: mustprogress uwtable
define internal void @_ZSt8__invokeIRFvPvN5folly18TLPDestructionModeEEJRPNS1_20SingletonThreadLocalINS1_4test12_GLOBAL__N_114PerThreadStateENS1_6detail10DefaultTagENS9_11DefaultMakeIS8_EEvE7WrapperES2_EENSt15__invoke_resultIT_JDpT0_EE4typeEOSI_DpOSJ_(ptr noundef nonnull %0, ptr noundef nonnull align 8 dereferenceable(8) %1, ptr noundef nonnull align 4 dereferenceable(4) %2) #6 {
  %4 = alloca ptr, align 8
  %5 = alloca ptr, align 8
  %6 = alloca ptr, align 8
  store ptr %0, ptr %4, align 8, !tbaa !117
  store ptr %1, ptr %5, align 8, !tbaa !646
  store ptr %2, ptr %6, align 8, !tbaa !117
  %7 = load ptr, ptr %4, align 8, !tbaa !117
  %8 = load ptr, ptr %5, align 8, !tbaa !646
  %9 = load ptr, ptr %6, align 8, !tbaa !117
  call void @_ZSt13__invoke_implIvRFvPvN5folly18TLPDestructionModeEEJRPNS1_20SingletonThreadLocalINS1_4test12_GLOBAL__N_114PerThreadStateENS1_6detail10DefaultTagENS9_11DefaultMakeIS8_EEvE7WrapperES2_EET_St14__invoke_otherOT0_DpOT1_(ptr noundef nonnull %7, ptr noundef nonnull align 8 dereferenceable(8) %8, ptr noundef nonnull align 4 dereferenceable(4) %9)
  ret void
}

; Function Attrs: mustprogress nounwind uwtable
define linkonce_odr noundef nonnull ptr @_ZNKSt17reference_wrapperIFvPvN5folly18TLPDestructionModeEEE3getEv(ptr noundef nonnull align 8 dereferenceable(8) %0) #1 comdat align 2 {
  %2 = alloca ptr, align 8
  store ptr %0, ptr %2, align 8, !tbaa !719
  %3 = load ptr, ptr %2, align 8
  %4 = getelementptr inbounds nuw %"class.std::reference_wrapper", ptr %3, i32 0, i32 0
  %5 = load ptr, ptr %4, align 8, !tbaa !731
  ret ptr %5
}

; Function Attrs: mustprogress uwtable
define internal void @_ZNKSt17reference_wrapperIFvPvN5folly18TLPDestructionModeEEEclIJRPNS1_20SingletonThreadLocalINS1_4test12_GLOBAL__N_114PerThreadStateENS1_6detail10DefaultTagENSA_11DefaultMakeIS9_EEvE7WrapperES2_EEENSt15__invoke_resultIRS3_JDpT_EE4typeEDpOSK_(ptr noundef nonnull align 8 dereferenceable(8) %0, ptr noundef nonnull align 8 dereferenceable(8) %1, ptr noundef nonnull align 4 dereferenceable(4) %2) #6 align 2 {
  %4 = alloca ptr, align 8
  %5 = alloca ptr, align 8
  %6 = alloca ptr, align 8
  store ptr %0, ptr %4, align 8, !tbaa !719
  store ptr %1, ptr %5, align 8, !tbaa !646
  store ptr %2, ptr %6, align 8, !tbaa !117
  %7 = load ptr, ptr %4, align 8
  %8 = call noundef nonnull ptr @_ZNKSt17reference_wrapperIFvPvN5folly18TLPDestructionModeEEE3getEv(ptr noundef nonnull align 8 dereferenceable(8) %7) #2
  %9 = load ptr, ptr %5, align 8, !tbaa !646
  %10 = load ptr, ptr %6, align 8, !tbaa !117
  call void @_ZSt8__invokeIRFvPvN5folly18TLPDestructionModeEEJRPNS1_20SingletonThreadLocalINS1_4test12_GLOBAL__N_114PerThreadStateENS1_6detail10DefaultTagENS9_11DefaultMakeIS8_EEvE7WrapperES2_EENSt15__invoke_resultIT_JDpT0_EE4typeEOSI_DpOSJ_(ptr noundef nonnull %8, ptr noundef nonnull align 8 dereferenceable(8) %9, ptr noundef nonnull align 4 dereferenceable(4) %10)
  ret void
}

; Function Attrs: noinline noreturn nounwind uwtable
define linkonce_odr hidden void @__clang_call_terminate(ptr noundef %0) #4 comdat {
  %2 = call ptr @__cxa_begin_catch(ptr %0) #2
  call void @_ZSt9terminatev() #29
  unreachable
}

; Function Attrs: alwaysinline mustprogress nounwind uwtable
define linkonce_odr hidden void @_ZN5folly11invoke_coldIPDoFvvEJES1_TnNSt9enable_ifIXsr3std11is_functionIT1_EE5valueEiE4typeELi0EvEET3_OT_DpOT0_(ptr noundef nonnull align 8 dereferenceable(8) %0) #19 comdat {
  %2 = alloca ptr, align 8
  store ptr %0, ptr %2, align 8, !tbaa !117
  %3 = load ptr, ptr %2, align 8, !tbaa !117
  %4 = load ptr, ptr %3, align 8, !tbaa !117
  call void %4() #2
  ret void
}

; Function Attrs: inlinehint mustprogress uwtable
define internal void @_ZZN5folly18threadlocal_detail14ElementWrapper3setIPNS_20SingletonThreadLocalINS_4test12_GLOBAL__N_114PerThreadStateENS_6detail10DefaultTagENS7_11DefaultMakeIS6_EEvE7WrapperESt17reference_wrapperIFvPvNS_18TLPDestructionModeEEEEEvT_RKT0_ENKUlvE_clEv(ptr noundef nonnull align 8 dereferenceable(16) %0) #10 align 2 {
  %2 = alloca ptr, align 8
  %3 = alloca i32, align 4
  store ptr %0, ptr %2, align 8, !tbaa !117
  %4 = load ptr, ptr %2, align 8
  %5 = getelementptr inbounds nuw %class.anon.181, ptr %4, i32 0, i32 0
  %6 = load ptr, ptr %5, align 8, !tbaa !733
  %7 = getelementptr inbounds nuw %class.anon.181, ptr %4, i32 0, i32 1
  %8 = load ptr, ptr %7, align 8, !tbaa !735
  call void @llvm.lifetime.start.p0(i64 4, ptr %3) #2
  store i32 0, ptr %3, align 4, !tbaa !717
  call void @_ZNKSt17reference_wrapperIFvPvN5folly18TLPDestructionModeEEEclIJRPNS1_20SingletonThreadLocalINS1_4test12_GLOBAL__N_114PerThreadStateENS1_6detail10DefaultTagENSA_11DefaultMakeIS9_EEvE7WrapperES2_EEENSt15__invoke_resultIRS3_JDpT_EE4typeEDpOSK_(ptr noundef nonnull align 8 dereferenceable(8) %6, ptr noundef nonnull align 8 dereferenceable(8) %8, ptr noundef nonnull align 4 dereferenceable(4) %3)
  call void @llvm.lifetime.end.p0(i64 4, ptr %3) #2
  ret void
}

; Function Attrs: alwaysinline mustprogress nounwind uwtable
define internal void @_ZN5folly15catch_exceptionIRZNS_18threadlocal_detail14ElementWrapper3setIPNS_20SingletonThreadLocalINS_4test12_GLOBAL__N_114PerThreadStateENS_6detail10DefaultTagENS8_11DefaultMakeIS7_EEvE7WrapperESt17reference_wrapperIFvPvNS_18TLPDestructionModeEEEEEvT_RKT0_EUlvE_PDoFvvEJEvEET2_OSK_OSL_DpOT1_(ptr noundef nonnull align 8 dereferenceable(16) %0, ptr noundef nonnull align 8 dereferenceable(8) %1) #19 personality ptr @__gxx_personality_v0 {
  %3 = alloca ptr, align 8
  %4 = alloca ptr, align 8
  %5 = alloca ptr, align 8
  %6 = alloca i32, align 4
  store ptr %0, ptr %3, align 8, !tbaa !117
  store ptr %1, ptr %4, align 8, !tbaa !117
  %7 = load ptr, ptr %3, align 8, !tbaa !117
  invoke void @_ZZN5folly18threadlocal_detail14ElementWrapper3setIPNS_20SingletonThreadLocalINS_4test12_GLOBAL__N_114PerThreadStateENS_6detail10DefaultTagENS7_11DefaultMakeIS6_EEvE7WrapperESt17reference_wrapperIFvPvNS_18TLPDestructionModeEEEEEvT_RKT0_ENKUlvE_clEv(ptr noundef nonnull align 8 dereferenceable(16) %7)
          to label %8 unwind label %9

8:                                                ; preds = %2
  br label %18

9:                                                ; preds = %2
  %10 = landingpad { ptr, i32 }
          catch ptr null
  %11 = extractvalue { ptr, i32 } %10, 0
  store ptr %11, ptr %5, align 8
  %12 = extractvalue { ptr, i32 } %10, 1
  store i32 %12, ptr %6, align 4
  br label %13

13:                                               ; preds = %9
  %14 = load ptr, ptr %5, align 8
  %15 = call ptr @__cxa_begin_catch(ptr %14) #2
  %16 = load ptr, ptr %4, align 8, !tbaa !117
  call void @_ZN5folly11invoke_coldIPDoFvvEJES1_TnNSt9enable_ifIXsr3std11is_functionIT1_EE5valueEiE4typeELi0EvEET3_OT_DpOT0_(ptr noundef nonnull align 8 dereferenceable(8) %16) #2
  invoke void @__cxa_end_catch()
          to label %17 unwind label %19

17:                                               ; preds = %13
  br label %18

18:                                               ; preds = %8, %17
  ret void

19:                                               ; preds = %13
  %20 = landingpad { ptr, i32 }
          catch ptr null
  %21 = extractvalue { ptr, i32 } %20, 0
  call void @__clang_call_terminate(ptr %21) #29
  unreachable
}

; Function Attrs: mustprogress nounwind uwtable
define internal void @_ZN5folly6detail14ScopeGuardImplIZNS_18threadlocal_detail14ElementWrapper3setIPNS_20SingletonThreadLocalINS_4test12_GLOBAL__N_114PerThreadStateENS0_10DefaultTagENS0_11DefaultMakeIS8_EEvE7WrapperESt17reference_wrapperIFvPvNS_18TLPDestructionModeEEEEEvT_RKT0_EUlvE_Lb1EE7executeEv(ptr noundef nonnull align 8 dereferenceable(24) %0) #1 align 2 {
  %2 = alloca ptr, align 8
  %3 = alloca ptr, align 8
  store ptr %0, ptr %2, align 8, !tbaa !728
  %4 = load ptr, ptr %2, align 8
  %5 = getelementptr inbounds nuw %"class.folly::detail::ScopeGuardImpl.180", ptr %4, i32 0, i32 1
  call void @llvm.lifetime.start.p0(i64 8, ptr %3) #2
  store ptr @_ZN5folly6detail18ScopeGuardImplBase9terminateEv, ptr %3, align 8, !tbaa !117
  call void @_ZN5folly15catch_exceptionIRZNS_18threadlocal_detail14ElementWrapper3setIPNS_20SingletonThreadLocalINS_4test12_GLOBAL__N_114PerThreadStateENS_6detail10DefaultTagENS8_11DefaultMakeIS7_EEvE7WrapperESt17reference_wrapperIFvPvNS_18TLPDestructionModeEEEEEvT_RKT0_EUlvE_PDoFvvEJEvEET2_OSK_OSL_DpOT1_(ptr noundef nonnull align 8 dereferenceable(16) %5, ptr noundef nonnull align 8 dereferenceable(8) %3) #2
  call void @llvm.lifetime.end.p0(i64 8, ptr %3) #2
  ret void
}

; Function Attrs: mustprogress nounwind uwtable
define internal void @_ZN5folly6detail14ScopeGuardImplIZNS_18threadlocal_detail14ElementWrapper3setIPNS_20SingletonThreadLocalINS_4test12_GLOBAL__N_114PerThreadStateENS0_10DefaultTagENS0_11DefaultMakeIS8_EEvE7WrapperESt17reference_wrapperIFvPvNS_18TLPDestructionModeEEEEEvT_RKT0_EUlvE_Lb1EED2Ev(ptr noundef nonnull align 8 dereferenceable(24) %0) unnamed_addr #1 align 2 {
  %2 = alloca ptr, align 8
  store ptr %0, ptr %2, align 8, !tbaa !728
  %3 = load ptr, ptr %2, align 8
  %4 = getelementptr inbounds nuw %"class.folly::detail::ScopeGuardImplBase", ptr %3, i32 0, i32 0
  %5 = load i8, ptr %4, align 8, !tbaa !651, !range !363, !noundef !364
  %6 = trunc i8 %5 to i1
  br i1 %6, label %8, label %7

7:                                                ; preds = %1
  call void @_ZN5folly6detail14ScopeGuardImplIZNS_18threadlocal_detail14ElementWrapper3setIPNS_20SingletonThreadLocalINS_4test12_GLOBAL__N_114PerThreadStateENS0_10DefaultTagENS0_11DefaultMakeIS8_EEvE7WrapperESt17reference_wrapperIFvPvNS_18TLPDestructionModeEEEEEvT_RKT0_EUlvE_Lb1EE7executeEv(ptr noundef nonnull align 8 dereferenceable(24) %3) #2
  br label %8

8:                                                ; preds = %7, %1
  ret void
}