; Function Attrs: mustprogress nounwind uwtable
define internal fastcc void @_ZN5folly6detail14ScopeGuardImplIZNS_18threadlocal_detail14ElementWrapper3setIPNS_20SingletonThreadLocalINS_4test12_GLOBAL__N_114PerThreadStateENS0_10DefaultTagENS0_11DefaultMakeIS8_EEvE7WrapperESt17reference_wrapperIFvPvNS_18TLPDestructionModeEEEEEvT_RKT0_EUlvE_Lb1EED2Ev(ptr noundef nonnull readonly align 8 captures(none) dereferenceable(24) %0) unnamed_addr #14 align 2 personality ptr @__gxx_personality_v0 {
  %2 = load i8, ptr %0, align 8, !tbaa !171, !range !161, !noundef !162
  %3 = trunc nuw i8 %2 to i1
  br i1 %3, label %_ZN5folly6detail14ScopeGuardImplIZNS_18threadlocal_detail14ElementWrapper3setIPNS_20SingletonThreadLocalINS_4test12_GLOBAL__N_114PerThreadStateENS0_10DefaultTagENS0_11DefaultMakeIS8_EEvE7WrapperESt17reference_wrapperIFvPvNS_18TLPDestructionModeEEEEEvT_RKT0_EUlvE_Lb1EE7executeEv.exit, label %4

4:                                                ; preds = %1
  %5 = getelementptr inbounds nuw i8, ptr %0, i64 8
  %.val = load ptr, ptr %5, align 8, !tbaa !289
  %6 = getelementptr inbounds nuw i8, ptr %0, i64 16
  %.val1 = load ptr, ptr %6, align 8, !tbaa !291
  %.val.val = load ptr, ptr %.val, align 8, !tbaa !292
  %.val1.val = load ptr, ptr %.val1, align 8, !tbaa !141
  invoke void %.val.val(ptr noundef %.val1.val, i32 noundef 0)
          to label %_ZN5folly6detail14ScopeGuardImplIZNS_18threadlocal_detail14ElementWrapper3setIPNS_20SingletonThreadLocalINS_4test12_GLOBAL__N_114PerThreadStateENS0_10DefaultTagENS0_11DefaultMakeIS8_EEvE7WrapperESt17reference_wrapperIFvPvNS_18TLPDestructionModeEEEEEvT_RKT0_EUlvE_Lb1EE7executeEv.exit unwind label %7

7:                                                ; preds = %4
  %8 = landingpad { ptr, i32 }
          catch ptr null
  %9 = extractvalue { ptr, i32 } %8, 0
  %10 = tail call ptr @__cxa_begin_catch(ptr %9) #18
  tail call void @_ZN5folly6detail18ScopeGuardImplBase9terminateEv() #18
  unreachable

_ZN5folly6detail14ScopeGuardImplIZNS_18threadlocal_detail14ElementWrapper3setIPNS_20SingletonThreadLocalINS_4test12_GLOBAL__N_114PerThreadStateENS0_10DefaultTagENS0_11DefaultMakeIS8_EEvE7WrapperESt17reference_wrapperIFvPvNS_18TLPDestructionModeEEEEEvT_RKT0_EUlvE_Lb1EE7executeEv.exit: ; preds = %4, %1
  ret void
}